; ModuleID = '49/638.cpp'
source_filename = "49/638.cpp"
target datalayout = "e-m:e-p270:32:32-p271:32:32-p272:64:64-i64:64-f80:128-n8:16:32:64-S128"
target triple = "x86_64-pc-linux-gnu"

%"class.std::ios_base::Init" = type { i8 }
%"class.std::basic_ostream" = type { i32 (...)**, %"class.std::basic_ios" }
%"class.std::basic_ios" = type { %"class.std::ios_base", %"class.std::basic_ostream"*, i8, i8, %"class.std::basic_streambuf"*, %"class.std::ctype"*, %"class.std::num_put"*, %"class.std::num_get"* }
%"class.std::ios_base" = type { i32 (...)**, i64, i64, i32, i32, i32, %"struct.std::ios_base::_Callback_list"*, %"struct.std::ios_base::_Words", [8 x %"struct.std::ios_base::_Words"], i32, %"struct.std::ios_base::_Words"*, %"class.std::locale" }
%"struct.std::ios_base::_Callback_list" = type { %"struct.std::ios_base::_Callback_list"*, void (i32, %"class.std::ios_base"*, i32)*, i32, i32 }
%"struct.std::ios_base::_Words" = type { i8*, i64 }
%"class.std::locale" = type { %"class.std::locale::_Impl"* }
%"class.std::locale::_Impl" = type { i32, %"class.std::locale::facet"**, i64, %"class.std::locale::facet"**, i8** }
%"class.std::locale::facet" = type <{ i32 (...)**, i32, [4 x i8] }>
%"class.std::basic_streambuf" = type { i32 (...)**, i8*, i8*, i8*, i8*, i8*, i8*, %"class.std::locale" }
%"class.std::ctype" = type <{ %"class.std::locale::facet.base", [4 x i8], %struct.__locale_struct*, i8, [7 x i8], i32*, i32*, i16*, i8, [256 x i8], [256 x i8], i8, [6 x i8] }>
%"class.std::locale::facet.base" = type <{ i32 (...)**, i32 }>
%struct.__locale_struct = type { [13 x %struct.__locale_data*], i16*, i32*, i32*, [13 x i8*] }
%struct.__locale_data = type opaque
%"class.std::num_put" = type { %"class.std::locale::facet.base", [4 x i8] }
%"class.std::num_get" = type { %"class.std::locale::facet.base", [4 x i8] }

@_ZStL8__ioinit = internal global %"class.std::ios_base::Init" zeroinitializer, align 1
@__dso_handle = external hidden global i8
@_ZSt4cout = external dso_local global %"class.std::basic_ostream", align 8
@llvm.global_ctors = appending global [1 x { i32, void ()*, i8* }] [{ i32, void ()*, i8* } { i32 65535, void ()* @_GLOBAL__sub_I_638.cpp, i8* null }]

; Function Attrs: noinline uwtable
define internal void @__cxx_global_var_init() #0 section ".text.startup" {
  call void @_ZNSt8ios_base4InitC1Ev(%"class.std::ios_base::Init"* @_ZStL8__ioinit)
  %1 = call i32 @__cxa_atexit(void (i8*)* bitcast (void (%"class.std::ios_base::Init"*)* @_ZNSt8ios_base4InitD1Ev to void (i8*)*), i8* getelementptr inbounds (%"class.std::ios_base::Init", %"class.std::ios_base::Init"* @_ZStL8__ioinit, i32 0, i32 0), i8* @__dso_handle) #3
  ret void
}

declare dso_local void @_ZNSt8ios_base4InitC1Ev(%"class.std::ios_base::Init"*) unnamed_addr #1

; Function Attrs: nounwind
declare dso_local void @_ZNSt8ios_base4InitD1Ev(%"class.std::ios_base::Init"*) unnamed_addr #2

; Function Attrs: nounwind
declare dso_local i32 @__cxa_atexit(void (i8*)*, i8*, i8*) #3

; Function Attrs: noinline norecurse uwtable
define dso_local i32 @main() #4 {
  %1 = alloca i32, align 4
  %2 = alloca [502 x i8], align 16
  %3 = alloca i32, align 4
  %4 = alloca i32, align 4
  %5 = alloca i32, align 4
  %6 = alloca i32, align 4
  %7 = alloca i32, align 4
  %8 = alloca i32, align 4
  %9 = alloca i32, align 4
  store i32 0, i32* %1, align 4
  %10 = bitcast [502 x i8]* %2 to i8*
  call void @llvm.memset.p0i8.i64(i8* align 16 %10, i8 0, i64 502, i1 false)
  store i32 1, i32* %3, align 4
  br label %11

11:                                               ; preds = %0, %24
  %12 = call i32 @getchar()
  %13 = trunc i32 %12 to i8
  %14 = load i32, i32* %3, align 4
  %15 = sext i32 %14 to i64
  %16 = getelementptr inbounds [502 x i8], [502 x i8]* %2, i64 0, i64 %15
  store i8 %13, i8* %16, align 1
  %17 = load i32, i32* %3, align 4
  %18 = sext i32 %17 to i64
  %19 = getelementptr inbounds [502 x i8], [502 x i8]* %2, i64 0, i64 %18
  %20 = load i8, i8* %19, align 1
  %21 = sext i8 %20 to i32
  %22 = icmp eq i32 %21, 10
  br i1 %22, label %23, label %24

23:                                               ; preds = %11
  br label %27

24:                                               ; preds = %11
  %25 = load i32, i32* %3, align 4
  %26 = add nsw i32 %25, 1
  store i32 %26, i32* %3, align 4
  br label %11

27:                                               ; preds = %23
  %28 = load i32, i32* %3, align 4
  %29 = sub nsw i32 %28, 1
  store i32 %29, i32* %5, align 4
  store i32 0, i32* %6, align 4
  store i32 1, i32* %4, align 4
  br label %30

30:                                               ; preds = %108, %27
  %31 = load i32, i32* %4, align 4
  %32 = load i32, i32* %5, align 4
  %33 = icmp sle i32 %31, %32
  br i1 %33, label %34, label %111

34:                                               ; preds = %30
  store i32 1, i32* %3, align 4
  br label %35

35:                                               ; preds = %104, %34
  %36 = load i32, i32* %3, align 4
  %37 = load i32, i32* %5, align 4
  %38 = icmp sle i32 %36, %37
  br i1 %38, label %39, label %107

39:                                               ; preds = %35
  store i32 0, i32* %6, align 4
  %40 = load i32, i32* %3, align 4
  store i32 %40, i32* %7, align 4
  %41 = load i32, i32* %4, align 4
  store i32 %41, i32* %8, align 4
  br label %42

42:                                               ; preds = %73, %39
  %43 = load i32, i32* %7, align 4
  %44 = load i32, i32* %8, align 4
  %45 = add nsw i32 %43, %44
  %46 = load i32, i32* %7, align 4
  %47 = icmp sgt i32 %45, %46
  br i1 %47, label %48, label %54

48:                                               ; preds = %42
  %49 = load i32, i32* %7, align 4
  %50 = load i32, i32* %8, align 4
  %51 = add nsw i32 %49, %50
  %52 = load i32, i32* %5, align 4
  %53 = icmp sle i32 %51, %52
  br label %54

54:                                               ; preds = %48, %42
  %55 = phi i1 [ false, %42 ], [ %53, %48 ]
  br i1 %55, label %56, label %78

56:                                               ; preds = %54
  %57 = load i32, i32* %7, align 4
  %58 = sext i32 %57 to i64
  %59 = getelementptr inbounds [502 x i8], [502 x i8]* %2, i64 0, i64 %58
  %60 = load i8, i8* %59, align 1
  %61 = sext i8 %60 to i32
  %62 = load i32, i32* %7, align 4
  %63 = load i32, i32* %8, align 4
  %64 = add nsw i32 %62, %63
  %65 = sext i32 %64 to i64
  %66 = getelementptr inbounds [502 x i8], [502 x i8]* %2, i64 0, i64 %65
  %67 = load i8, i8* %66, align 1
  %68 = sext i8 %67 to i32
  %69 = icmp eq i32 %61, %68
  br i1 %69, label %70, label %73

70:                                               ; preds = %56
  %71 = load i32, i32* %6, align 4
  %72 = add nsw i32 %71, 1
  store i32 %72, i32* %6, align 4
  br label %73

73:                                               ; preds = %70, %56
  %74 = load i32, i32* %7, align 4
  %75 = add nsw i32 %74, 1
  store i32 %75, i32* %7, align 4
  %76 = load i32, i32* %8, align 4
  %77 = sub nsw i32 %76, 2
  store i32 %77, i32* %8, align 4
  br label %42

78:                                               ; preds = %54
  %79 = load i32, i32* %6, align 4
  %80 = load i32, i32* %4, align 4
  %81 = add nsw i32 %80, 1
  %82 = sdiv i32 %81, 2
  %83 = icmp eq i32 %79, %82
  br i1 %83, label %84, label %103

84:                                               ; preds = %78
  %85 = load i32, i32* %3, align 4
  store i32 %85, i32* %9, align 4
  br label %86

86:                                               ; preds = %98, %84
  %87 = load i32, i32* %9, align 4
  %88 = load i32, i32* %3, align 4
  %89 = load i32, i32* %4, align 4
  %90 = add nsw i32 %88, %89
  %91 = icmp sle i32 %87, %90
  br i1 %91, label %92, label %101

92:                                               ; preds = %86
  %93 = load i32, i32* %9, align 4
  %94 = sext i32 %93 to i64
  %95 = getelementptr inbounds [502 x i8], [502 x i8]* %2, i64 0, i64 %94
  %96 = load i8, i8* %95, align 1
  %97 = call dereferenceable(272) %"class.std::basic_ostream"* @_ZStlsISt11char_traitsIcEERSt13basic_ostreamIcT_ES5_c(%"class.std::basic_ostream"* dereferenceable(272) @_ZSt4cout, i8 signext %96)
  br label %98

98:                                               ; preds = %92
  %99 = load i32, i32* %9, align 4
  %100 = add nsw i32 %99, 1
  store i32 %100, i32* %9, align 4
  br label %86

101:                                              ; preds = %86
  %102 = call dereferenceable(272) %"class.std::basic_ostream"* @_ZNSolsEPFRSoS_E(%"class.std::basic_ostream"* @_ZSt4cout, %"class.std::basic_ostream"* (%"class.std::basic_ostream"*)* @_ZSt4endlIcSt11char_traitsIcEERSt13basic_ostreamIT_T0_ES6_)
  br label %103

103:                                              ; preds = %101, %78
  br label %104

104:                                              ; preds = %103
  %105 = load i32, i32* %3, align 4
  %106 = add nsw i32 %105, 1
  store i32 %106, i32* %3, align 4
  br label %35

107:                                              ; preds = %35
  br label %108

108:                                              ; preds = %107
  %109 = load i32, i32* %4, align 4
  %110 = add nsw i32 %109, 2
  store i32 %110, i32* %4, align 4
  br label %30

111:                                              ; preds = %30
  ret i32 0
}

; Function Attrs: argmemonly nounwind willreturn
declare void @llvm.memset.p0i8.i64(i8* nocapture writeonly, i8, i64, i1 immarg) #5

declare dso_local i32 @getchar() #1

declare dso_local dereferenceable(272) %"class.std::basic_ostream"* @_ZStlsISt11char_traitsIcEERSt13basic_ostreamIcT_ES5_c(%"class.std::basic_ostream"* dereferenceable(272), i8 signext) #1

declare dso_local dereferenceable(272) %"class.std::basic_ostream"* @_ZNSolsEPFRSoS_E(%"class.std::basic_ostream"*, %"class.std::basic_ostream"* (%"class.std::basic_ostream"*)*) #1

declare dso_local dereferenceable(272) %"class.std::basic_ostream"* @_ZSt4endlIcSt11char_traitsIcEERSt13basic_ostreamIT_T0_ES6_(%"class.std::basic_ostream"* dereferenceable(272)) #1

; Function Attrs: noinline uwtable
define internal void @_GLOBAL__sub_I_638.cpp() #0 section ".text.startup" {
  call void @__cxx_global_var_init()
  ret void
}


!llvm.module.flags = !{!0}
!llvm.ident = !{!1}

!0 = !{i32 1, !"wchar_size", i32 4}
!1 = !{!"clang version 10.0.0-4ubuntu1 "}
