; ModuleID = 'source-C-CXX/48/638.cpp'
source_filename = "source-C-CXX/48/638.cpp"
target datalayout = "e-m:e-p270:32:32-p271:32:32-p272:64:64-i64:64-f80:128-n8:16:32:64-S128"
target triple = "x86_64-pc-linux-gnu"

%"class.std::ios_base::Init" = type { i8 }
%"class.std::basic_ostream" = type { i32 (...)**, %"class.std::basic_ios" }
%"class.std::basic_ios" = type { %"class.std::ios_base", %"class.std::basic_ostream"*, i8, i8, %"class.std::basic_streambuf"*, %"class.std::ctype"*, %"class.std::num_put"*, %"class.std::num_get"* }
%"class.std::ios_base" = type { i32 (...)**, i64, i64, i32, i32, i32, %"struct.std::ios_base::_Callback_list"*, %"struct.std::ios_base::_Words", [8 x %"struct.std::ios_base::_Words"], i32, %"struct.std::ios_base::_Words"*, %"class.std::locale" }
%"struct.std::ios_base::_Callback_list" = type { %"struct.std::ios_base::_Callback_list"*, void (i32, %"class.std::ios_base"*, i32)*, i32, i32 }
%"struct.std::ios_base::_Words" = type { i8*, i64 }
%"class.std::locale" = type { %"class.std::locale::_Impl"* }
%"class.std::locale::_Impl" = type { i32, %"class.std::locale::facet"**, i64, %"class.std::locale::facet"**, i8** }
%"class.std::locale::facet" = type <{ i32 (...)**, i32, [4 x i8] }>
%"class.std::basic_streambuf" = type { i32 (...)**, i8*, i8*, i8*, i8*, i8*, i8*, %"class.std::locale" }
%"class.std::ctype" = type <{ %"class.std::locale::facet.base", [4 x i8], %struct.__locale_struct*, i8, [7 x i8], i32*, i32*, i16*, i8, [256 x i8], [256 x i8], i8, [6 x i8] }>
%"class.std::locale::facet.base" = type <{ i32 (...)**, i32 }>
%struct.__locale_struct = type { [13 x %struct.__locale_data*], i16*, i32*, i32*, [13 x i8*] }
%struct.__locale_data = type opaque
%"class.std::num_put" = type { %"class.std::locale::facet.base", [4 x i8] }
%"class.std::num_get" = type { %"class.std::locale::facet.base", [4 x i8] }
%struct._IO_FILE = type { i32, i8*, i8*, i8*, i8*, i8*, i8*, i8*, i8*, i8*, i8*, i8*, %struct._IO_marker*, %struct._IO_FILE*, i32, i32, i64, i16, i8, [1 x i8], i8*, i64, %struct._IO_codecvt*, %struct._IO_wide_data*, %struct._IO_FILE*, i8*, i64, i32, [20 x i8] }
%struct._IO_marker = type opaque
%struct._IO_codecvt = type opaque
%struct._IO_wide_data = type opaque

@_ZStL8__ioinit = internal global %"class.std::ios_base::Init" zeroinitializer, align 1
@__dso_handle = external hidden global i8
@_ZSt4cout = external global %"class.std::basic_ostream", align 8
@stdin = external local_unnamed_addr global %struct._IO_FILE*, align 8
@llvm.global_ctors = appending global [1 x { i32, void ()*, i8* }] [{ i32, void ()*, i8* } { i32 65535, void ()* @_GLOBAL__sub_I_638.cpp, i8* null }]

declare void @_ZNSt8ios_base4InitC1Ev(%"class.std::ios_base::Init"* nonnull align 1 dereferenceable(1)) unnamed_addr #0

; Function Attrs: nounwind
declare void @_ZNSt8ios_base4InitD1Ev(%"class.std::ios_base::Init"* nonnull align 1 dereferenceable(1)) unnamed_addr #1

; Function Attrs: nofree nounwind
declare i32 @__cxa_atexit(void (i8*)*, i8*, i8*) local_unnamed_addr #2

; Function Attrs: mustprogress norecurse sspstrong uwtable
define dso_local i32 @main() local_unnamed_addr #3 {
  %1 = alloca i8, align 1
  %2 = alloca [502 x i8], align 16
  %3 = getelementptr inbounds [502 x i8], [502 x i8]* %2, i64 0, i64 0
  call void @llvm.lifetime.start.p0i8(i64 502, i8* nonnull %3) #9
  call void @llvm.memset.p0i8.i64(i8* noundef nonnull align 16 dereferenceable(502) %3, i8 0, i64 502, i1 false)
  br label %4

4:                                                ; preds = %4, %0
  %5 = phi i64 [ %12, %4 ], [ 1, %0 ]
  %6 = load %struct._IO_FILE*, %struct._IO_FILE** @stdin, align 8, !tbaa !5
  %7 = tail call i32 @getc(%struct._IO_FILE* %6)
  %8 = trunc i32 %7 to i8
  %9 = getelementptr inbounds [502 x i8], [502 x i8]* %2, i64 0, i64 %5
  store i8 %8, i8* %9, align 1, !tbaa !9
  %10 = and i32 %7, 255
  %11 = icmp eq i32 %10, 10
  %12 = add nuw i64 %5, 1
  br i1 %11, label %13, label %4, !llvm.loop !10

13:                                               ; preds = %4
  %14 = trunc i64 %5 to i32
  %15 = icmp ugt i32 %14, 1
  br i1 %15, label %16, label %94

16:                                               ; preds = %13
  %17 = and i64 %5, 4294967295
  br label %18

18:                                               ; preds = %16, %90
  %19 = phi i64 [ 1, %16 ], [ %91, %90 ]
  %20 = trunc i64 %19 to i32
  %21 = add i32 %20, 1
  %22 = lshr i32 %21, 1
  br label %84

23:                                               ; preds = %63, %84
  %24 = phi i32 [ 0, %84 ], [ %75, %63 ]
  %25 = icmp eq i32 %24, %22
  br i1 %25, label %26, label %60

26:                                               ; preds = %23, %26
  %27 = phi i64 [ %31, %26 ], [ %85, %23 ]
  %28 = getelementptr inbounds [502 x i8], [502 x i8]* %2, i64 0, i64 %27
  %29 = load i8, i8* %28, align 1, !tbaa !9
  call void @llvm.lifetime.start.p0i8(i64 1, i8* nonnull %1)
  store i8 %29, i8* %1, align 1, !tbaa !9
  %30 = call nonnull align 8 dereferenceable(8) %"class.std::basic_ostream"* @_ZSt16__ostream_insertIcSt11char_traitsIcEERSt13basic_ostreamIT_T0_ES6_PKS3_l(%"class.std::basic_ostream"* nonnull align 8 dereferenceable(8) @_ZSt4cout, i8* nonnull %1, i64 1)
  call void @llvm.lifetime.end.p0i8(i64 1, i8* nonnull %1)
  %31 = add nuw nsw i64 %27, 1
  %32 = icmp ult i64 %27, %86
  br i1 %32, label %26, label %33, !llvm.loop !12

33:                                               ; preds = %26
  %34 = load i8*, i8** bitcast (%"class.std::basic_ostream"* @_ZSt4cout to i8**), align 8, !tbaa !13
  %35 = getelementptr i8, i8* %34, i64 -24
  %36 = bitcast i8* %35 to i64*
  %37 = load i64, i64* %36, align 8
  %38 = add nsw i64 %37, 240
  %39 = getelementptr inbounds i8, i8* bitcast (%"class.std::basic_ostream"* @_ZSt4cout to i8*), i64 %38
  %40 = bitcast i8* %39 to %"class.std::ctype"**
  %41 = load %"class.std::ctype"*, %"class.std::ctype"** %40, align 8, !tbaa !15
  %42 = icmp eq %"class.std::ctype"* %41, null
  br i1 %42, label %93, label %43

43:                                               ; preds = %33
  %44 = getelementptr inbounds %"class.std::ctype", %"class.std::ctype"* %41, i64 0, i32 8
  %45 = load i8, i8* %44, align 8, !tbaa !18
  %46 = icmp eq i8 %45, 0
  br i1 %46, label %50, label %47

47:                                               ; preds = %43
  %48 = getelementptr inbounds %"class.std::ctype", %"class.std::ctype"* %41, i64 0, i32 9, i64 10
  %49 = load i8, i8* %48, align 1, !tbaa !9
  br label %56

50:                                               ; preds = %43
  call void @_ZNKSt5ctypeIcE13_M_widen_initEv(%"class.std::ctype"* nonnull align 8 dereferenceable(570) %41)
  %51 = bitcast %"class.std::ctype"* %41 to i8 (%"class.std::ctype"*, i8)***
  %52 = load i8 (%"class.std::ctype"*, i8)**, i8 (%"class.std::ctype"*, i8)*** %51, align 8, !tbaa !13
  %53 = getelementptr inbounds i8 (%"class.std::ctype"*, i8)*, i8 (%"class.std::ctype"*, i8)** %52, i64 6
  %54 = load i8 (%"class.std::ctype"*, i8)*, i8 (%"class.std::ctype"*, i8)** %53, align 8
  %55 = call signext i8 %54(%"class.std::ctype"* nonnull align 8 dereferenceable(570) %41, i8 signext 10)
  br label %56

56:                                               ; preds = %50, %47
  %57 = phi i8 [ %49, %47 ], [ %55, %50 ]
  %58 = call nonnull align 8 dereferenceable(8) %"class.std::basic_ostream"* @_ZNSo3putEc(%"class.std::basic_ostream"* nonnull align 8 dereferenceable(8) @_ZSt4cout, i8 signext %57)
  %59 = call nonnull align 8 dereferenceable(8) %"class.std::basic_ostream"* @_ZNSo5flushEv(%"class.std::basic_ostream"* nonnull align 8 dereferenceable(8) %58)
  br label %60

60:                                               ; preds = %56, %23
  %61 = add nuw nsw i64 %85, 1
  %62 = icmp eq i64 %61, %17
  br i1 %62, label %90, label %84, !llvm.loop !20

63:                                               ; preds = %88, %63
  %64 = phi i64 [ %85, %88 ], [ %76, %63 ]
  %65 = phi i64 [ %19, %88 ], [ %77, %63 ]
  %66 = phi i32 [ %89, %88 ], [ %80, %63 ]
  %67 = phi i32 [ 0, %88 ], [ %75, %63 ]
  %68 = getelementptr inbounds [502 x i8], [502 x i8]* %2, i64 0, i64 %64
  %69 = load i8, i8* %68, align 1, !tbaa !9
  %70 = sext i32 %66 to i64
  %71 = getelementptr inbounds [502 x i8], [502 x i8]* %2, i64 0, i64 %70
  %72 = load i8, i8* %71, align 1, !tbaa !9
  %73 = icmp eq i8 %69, %72
  %74 = zext i1 %73 to i32
  %75 = add nuw nsw i32 %67, %74
  %76 = add nuw nsw i64 %64, 1
  %77 = add nsw i64 %65, -2
  %78 = trunc i64 %77 to i32
  %79 = trunc i64 %76 to i32
  %80 = add nsw i32 %78, %79
  %81 = icmp sgt i64 %65, 2
  %82 = icmp slt i32 %80, %14
  %83 = select i1 %81, i1 %82, i1 false
  br i1 %83, label %63, label %23, !llvm.loop !21

84:                                               ; preds = %18, %60
  %85 = phi i64 [ 1, %18 ], [ %61, %60 ]
  %86 = add nuw nsw i64 %19, %85
  %87 = icmp ult i64 %86, %17
  br i1 %87, label %88, label %23

88:                                               ; preds = %84
  %89 = trunc i64 %86 to i32
  br label %63

90:                                               ; preds = %60
  %91 = add nuw nsw i64 %19, 2
  %92 = icmp ult i64 %91, %17
  br i1 %92, label %18, label %94, !llvm.loop !22

93:                                               ; preds = %33
  call void @_ZSt16__throw_bad_castv() #10
  unreachable

94:                                               ; preds = %90, %13
  call void @llvm.lifetime.end.p0i8(i64 502, i8* nonnull %3) #9
  ret i32 0
}

; Function Attrs: argmemonly mustprogress nofree nosync nounwind willreturn
declare void @llvm.lifetime.start.p0i8(i64 immarg, i8* nocapture) #4

; Function Attrs: argmemonly mustprogress nofree nounwind willreturn writeonly
declare void @llvm.memset.p0i8.i64(i8* nocapture writeonly, i8, i64, i1 immarg) #5

; Function Attrs: argmemonly mustprogress nofree nosync nounwind willreturn
declare void @llvm.lifetime.end.p0i8(i64 immarg, i8* nocapture) #4

; Function Attrs: nofree nounwind
declare noundef i32 @getc(%struct._IO_FILE* nocapture noundef) local_unnamed_addr #6

declare nonnull align 8 dereferenceable(8) %"class.std::basic_ostream"* @_ZSt16__ostream_insertIcSt11char_traitsIcEERSt13basic_ostreamIT_T0_ES6_PKS3_l(%"class.std::basic_ostream"* nonnull align 8 dereferenceable(8), i8*, i64) local_unnamed_addr #0

declare nonnull align 8 dereferenceable(8) %"class.std::basic_ostream"* @_ZNSo3putEc(%"class.std::basic_ostream"* nonnull align 8 dereferenceable(8), i8 signext) local_unnamed_addr #0

declare nonnull align 8 dereferenceable(8) %"class.std::basic_ostream"* @_ZNSo5flushEv(%"class.std::basic_ostream"* nonnull align 8 dereferenceable(8)) local_unnamed_addr #0

; Function Attrs: noreturn
declare void @_ZSt16__throw_bad_castv() local_unnamed_addr #7

declare void @_ZNKSt5ctypeIcE13_M_widen_initEv(%"class.std::ctype"* nonnull align 8 dereferenceable(570)) local_unnamed_addr #0

; Function Attrs: sspstrong uwtable
define internal void @_GLOBAL__sub_I_638.cpp() #8 section ".text.startup" {
  tail call void @_ZNSt8ios_base4InitC1Ev(%"class.std::ios_base::Init"* nonnull align 1 dereferenceable(1) @_ZStL8__ioinit)
  %1 = tail call i32 @__cxa_atexit(void (i8*)* bitcast (void (%"class.std::ios_base::Init"*)* @_ZNSt8ios_base4InitD1Ev to void (i8*)*), i8* getelementptr inbounds (%"class.std::ios_base::Init", %"class.std::ios_base::Init"* @_ZStL8__ioinit, i64 0, i32 0), i8* nonnull @__dso_handle) #9
  ret void
}


!llvm.module.flags = !{!0, !1, !2, !3}
!llvm.ident = !{!4}

!0 = !{i32 1, !"wchar_size", i32 4}
!1 = !{i32 7, !"PIC Level", i32 2}
!2 = !{i32 7, !"PIE Level", i32 2}
!3 = !{i32 7, !"uwtable", i32 1}
!4 = !{!"clang version 13.0.0"}
!5 = !{!6, !6, i64 0}
!6 = !{!"any pointer", !7, i64 0}
!7 = !{!"omnipotent char", !8, i64 0}
!8 = !{!"Simple C++ TBAA"}
!9 = !{!7, !7, i64 0}
!10 = distinct !{!10, !11}
!11 = !{!"llvm.loop.mustprogress"}
!12 = distinct !{!12, !11}
!13 = !{!14, !14, i64 0}
!14 = !{!"vtable pointer", !8, i64 0}
!15 = !{!16, !6, i64 240}
!16 = !{!"_ZTSSt9basic_iosIcSt11char_traitsIcEE", !6, i64 216, !7, i64 224, !17, i64 225, !6, i64 232, !6, i64 240, !6, i64 248, !6, i64 256}
!17 = !{!"bool", !7, i64 0}
!18 = !{!19, !7, i64 56}
!19 = !{!"_ZTSSt5ctypeIcE", !6, i64 16, !17, i64 24, !6, i64 32, !6, i64 40, !6, i64 48, !7, i64 56, !7, i64 57, !7, i64 313, !7, i64 569}
!20 = distinct !{!20, !11}
!21 = distinct !{!21, !11}
!22 = distinct !{!22, !11}
